target datalayout = "e-m:e-p270:32:32-p271:32:32-p272:64:64-i64:64-i128:128-f80:128-n8:16:32:64-S128"
target triple = "x86_64-pc-linux-gnu"

%struct._value_string = type { i32, ptr }
%struct.raknet_handler_entry = type { %struct._value_string, ptr }

@.str.3 = private unnamed_addr constant [26 x i8] c"raknet.offline.message.id\00", align 1
@.str.104 = private unnamed_addr constant [25 x i8] c"raknet.system.message.id\00", align 1
@proto_raknet = internal global i32 0, align 4
@.str.152 = private unnamed_addr constant [4 x i8] c"udp\00", align 1
@.str.153 = private unnamed_addr constant [16 x i8] c"RakNet over UDP\00", align 1
@.str.154 = private unnamed_addr constant [11 x i8] c"raknet_udp\00", align 1

; Function Attrs: null_pointer_is_valid sspstrong uwtable
define hidden void @proto_reg_handoff_raknet() #0 {
  %1 = alloca ptr, align 8
  %2 = alloca i32, align 4
  call void @llvm.lifetime.start.p0(i64 8, ptr %1) #6
  call void @llvm.lifetime.start.p0(i64 4, ptr %2) #6
  store i32 0, ptr %2, align 4
  br label %3

3:                                                ; preds = %22, %0
  %4 = load i32, ptr %2, align 4
  %5 = zext i32 %4 to i64
  %6 = icmp ult i64 %5, 14
  br i1 %6, label %7, label %25

7:                                                ; preds = %3
  %8 = load i32, ptr %2, align 4
  %9 = zext i32 %8 to i64
  %10 = getelementptr [14 x %struct.raknet_handler_entry], ptr @raknet_offline_message_handlers, i64 0, i64 %9
  %11 = getelementptr inbounds nuw %struct.raknet_handler_entry, ptr %10, i32 0, i32 1
  %12 = load ptr, ptr %11, align 8
  %13 = load i32, ptr @proto_raknet, align 4
  %14 = call ptr @create_dissector_handle(ptr noundef %12, i32 noundef %13)
  store ptr %14, ptr %1, align 8
  %15 = load i32, ptr %2, align 4
  %16 = zext i32 %15 to i64
  %17 = getelementptr [14 x %struct.raknet_handler_entry], ptr @raknet_offline_message_handlers, i64 0, i64 %16
  %18 = getelementptr inbounds nuw %struct.raknet_handler_entry, ptr %17, i32 0, i32 0
  %19 = getelementptr inbounds nuw %struct._value_string, ptr %18, i32 0, i32 0
  %20 = load i32, ptr %19, align 8
  %21 = load ptr, ptr %1, align 8
  call void @dissector_add_uint(ptr noundef @.str.3, i32 noundef %20, ptr noundef %21)
  br label %22

22:                                               ; preds = %7
  %23 = load i32, ptr %2, align 4
  %24 = add i32 %23, 1
  store i32 %24, ptr %2, align 4
  br label %3, !llvm.loop !9

25:                                               ; preds = %3
  store i32 0, ptr %2, align 4
  br label %26

26:                                               ; preds = %45, %25
  %27 = load i32, ptr %2, align 4
  %28 = zext i32 %27 to i64
  %29 = icmp ult i64 %28, 5
  br i1 %29, label %30, label %48

30:                                               ; preds = %26
  %31 = load i32, ptr %2, align 4
  %32 = zext i32 %31 to i64
  %33 = getelementptr [5 x %struct.raknet_handler_entry], ptr @raknet_system_message_handlers, i64 0, i64 %32
  %34 = getelementptr inbounds nuw %struct.raknet_handler_entry, ptr %33, i32 0, i32 1
  %35 = load ptr, ptr %34, align 8
  %36 = load i32, ptr @proto_raknet, align 4
  %37 = call ptr @create_dissector_handle(ptr noundef %35, i32 noundef %36)
  store ptr %37, ptr %1, align 8
  %38 = load i32, ptr %2, align 4
  %39 = zext i32 %38 to i64
  %40 = getelementptr [5 x %struct.raknet_handler_entry], ptr @raknet_system_message_handlers, i64 0, i64 %39
  %41 = getelementptr inbounds nuw %struct.raknet_handler_entry, ptr %40, i32 0, i32 0
  %42 = getelementptr inbounds nuw %struct._value_string, ptr %41, i32 0, i32 0
  %43 = load i32, ptr %42, align 8
  %44 = load ptr, ptr %1, align 8
  call void @dissector_add_uint(ptr noundef @.str.104, i32 noundef %43, ptr noundef %44)
  br label %45

45:                                               ; preds = %30
  %46 = load i32, ptr %2, align 4
  %47 = add i32 %46, 1
  store i32 %47, ptr %2, align 4
  br label %26, !llvm.loop !10

48:                                               ; preds = %26
  %49 = load i32, ptr @proto_raknet, align 4
  call void @heur_dissector_add(ptr noundef @.str.152, ptr noundef @dissect_raknet_heur, ptr noundef @.str.153, ptr noundef @.str.154, i32 noundef %49, i32 noundef 1)
  call void @llvm.lifetime.end.p0(i64 4, ptr %2) #6
  call void @llvm.lifetime.end.p0(i64 8, ptr %1) #6
  ret void
}