; Function Attrs: null_pointer_is_valid sspstrong uwtable
define hidden void @proto_reg_handoff_raknet() local_unnamed_addr #0 {
  br label %1

1:                                                ; preds = %0, %1
  %indvars.iv = phi i64 [ 0, %0 ], [ %indvars.iv.next, %1 ]
  %2 = getelementptr [14 x %struct.raknet_handler_entry], ptr @raknet_offline_message_handlers, i64 0, i64 %indvars.iv
  %3 = getelementptr inbounds nuw i8, ptr %2, i64 16
  %4 = load ptr, ptr %3, align 8
  %5 = load i32, ptr @proto_raknet, align 4
  %6 = tail call ptr @create_dissector_handle(ptr noundef %4, i32 noundef %5)
  %7 = load i32, ptr %2, align 8
  tail call void @dissector_add_uint(ptr noundef nonnull @.str.3, i32 noundef %7, ptr noundef %6)
  %indvars.iv.next = add nuw nsw i64 %indvars.iv, 1
  %exitcond.not = icmp eq i64 %indvars.iv.next, 14
  br i1 %exitcond.not, label %.preheader, label %1, !llvm.loop !11

.preheader:                                       ; preds = %1, %.preheader
  %indvars.iv14 = phi i64 [ %indvars.iv.next15, %.preheader ], [ 0, %1 ]
  %8 = getelementptr [5 x %struct.raknet_handler_entry], ptr @raknet_system_message_handlers, i64 0, i64 %indvars.iv14
  %9 = getelementptr inbounds nuw i8, ptr %8, i64 16
  %10 = load ptr, ptr %9, align 8
  %11 = load i32, ptr @proto_raknet, align 4
  %12 = tail call ptr @create_dissector_handle(ptr noundef %10, i32 noundef %11)
  %13 = load i32, ptr %8, align 8
  tail call void @dissector_add_uint(ptr noundef nonnull @.str.104, i32 noundef %13, ptr noundef %12)
  %indvars.iv.next15 = add nuw nsw i64 %indvars.iv14, 1
  %exitcond17.not = icmp eq i64 %indvars.iv.next15, 5
  br i1 %exitcond17.not, label %14, label %.preheader, !llvm.loop !12

14:                                               ; preds = %.preheader
  %15 = load i32, ptr @proto_raknet, align 4
  tail call void @heur_dissector_add(ptr noundef nonnull @.str.152, ptr noundef nonnull @dissect_raknet_heur, ptr noundef nonnull @.str.153, ptr noundef nonnull @.str.154, i32 noundef %15, i32 noundef 1)
  ret void
}